(lp1
S'Co-President'
p2
aS'Director'
p3
aS'chairman'
p4
aS'ceo'
p5
aS'chief executive officer'
p6
aS'vice chairman'
p7
aS'president'
p8
aS'svp'
p9
aS'Executive Vice President'
p10
aS'manager'
p11
aS'officer'
p12
aS'chief marketing officer'
p13
aS'cmo'
p14
aS'cfo'
p15
aS'evp'
p16
aS'co-founder'
p17
aS'executive chairman'
p18
aS'chief financial officer'
p19
aS'executive vice president'
p20
aS'chief technology officer'
p21
aS'vice president'
p22
aS'chief administrative officer'
p23
aS'chief information officer'
p24
aS'president and chief executive officer'
p25
aS'chief financial officer'
p26
aS'executive vice president'
p27
aS'chief executive officer'
p28
aS'senior vice president'
p29
aS'president'
p30
aS'president and chief operating officer'
p31
aS'chief operating officer'
p32
aS'vice president'
p33
aS'senior vice president and chief financial officer'
p34
aS'chairman and chief executive officer'
p35
aS'chairman, president and chief executive officer'
p36
aS'vice president and chief financial officer'
p37
aS'chief executive officer and president'
p38
aS'director'
p39
aS'president and ceo'
p40
aS'president chief executive officer'
p41
aS'executive vice president chief financial officer'
p42
aS'chairman of the board and chief executive officer'
p43
aS'president, chief executive officer and director'
p44
aS'chief technology officer'
p45
aS'president and chief'
p46
aS'vice president, general counsel and secretary'
p47
aS'senior vice president and general counsel'
p48
aS'vice chairman'
p49
aS'senior vice president chief financial officer'
p50
aS'former president and chief executive officer'
p51
aS'executive vice'
p52
aS'former chief financial officer'
p53
aS'president ceo'
p54
aS'executive vice president and general counsel'
p55
aS'former chief executive officer'
p56
aS'general counsel'
p57
aS'chief financial officer and treasurer'
p58
aS'chief financial officer and secretary'
p59
aS'president, chief executive officer'
p60
aS'ceo'
p61
aS'chairman, chief executive officer and president'
p62
aS'executive chairman'
p63
aS'vice president and general counsel'
p64
aS'chairman of the board'
p65
aS'executive vice president, chief financial officer'
p66
aS'chief executive officer and director'
p67
aS'chief scientific officer'
p68
aS'chairman'
p69
aS'vice president of operations'
p70
aS'executive vice president chief operating officer'
p71
aS'chief information officer'
p72
aS'senior vice president and chief operating officer'
p73
aS'general counsel and secretary'
p74
aS'vice president, operations'
p75
aS'president chief operating officer'
p76
aS'and chief executive officer'
p77
aS'chief accounting officer'
p78
aS'senior vice president, operations'
p79
aS'sr. vice president'
p80
aS'senior executive vice president'
p81
aS'vice president, sales'
p82
aS'chief medical officer'
p83
aS'president and director'
p84
aS'group vice president'
p85
aS'chief marketing officer'
p86
aS'chairman chief executive officer'
p87
aS'group president'
p88
aS'president and chief financial officer'
p89
aS'senior vice president, chief financial officer'
p90
aS'vice president chief financial officer'
p91
aS'vice president of marketing'
p92
aS'vice president operations'
p93
aS'former president'
p94
aS'president and coo'
p95
aS'chief executive officer and chairman of the board'
p96
aS'vice president, sales and marketing'
p97
aS'president and chief executiveofficer'
p98
aS'vice president of sales'
p99
aS'vice president, chief financial officer'
p100
aS'executive vice president and chief lending officer'
p101
aS'vice president of sales and marketing'
p102
aS'executive vicepresident'
p103
aS'chief financial officer, treasurer and secretary'
p104
aS'senior vice president, human resources'
p105
aS'vice president and chief operating officer'
p106
aS'vice president, human resources'
p107
aS'senior vice president human resources'
p108
aS'vice president and general'
p109
aS'senior vice president and chief technology officer'
p110
aS'chairman, president and ceo'
p111
aS'former chief operating officer'
p112
aS'executive vice president, chief operating officer'
p113
aS'vice president human resources'
p114
aS'chief administrative officer'
p115
aS'vice president of engineering'
p116
aS'ceo and president'
p117
aS'vice president, marketing'
p118
aS'vice president, engineering'
p119
aS'vice president finance and chief financial officer'
p120
aS'executive vice president and chief credit officer'
p121
aS'chief technical officer'
p122
aS'executive vice president, operations'
p123
aS'chairman, president chief executive officer'
p124
a.