(dp1
S'us bank'
p2
(lp3
Vhttps://www.usbank.com/commercial-business/tax-credit-financing/senior-leadership-team.html
p4
asS'general mills'
p5
(lp6
sS'pnc bank'
p7
(lp8
sS'us army'
p9
(lp10
sS'walgreens'
p11
(lp12
Vhttp://news.walgreens.com/executive-bios/
p13
aVhttp://jobs.walgreens.com/careers/executive-leadership-jobs
p14
asS'deloitte consulting'
p15
(lp16
Vhttp://www2.deloitte.com/ca/en/pages/about-deloitte/topics/executive-team.html
p17
aVhttps://www.deloittemarketpoint.com/about-us/executive-team
p18
asS'windstream communications'
p19
(lp20
sS'ge'
p21
(lp22
Vhttp://www.ge.com/about-us/leadership/corporate-executives
p23
aVhttp://www.ge.com/about-us/leadership/business-executives
p24
asS'suntrust bank'
p25
(lp26
sS'kraft foods'
p27
(lp28
sS'walt disney world'
p29
(lp30
Vhttp://thewaltdisneycompany.com/about-disney/leadership/management
p31
aVhttp://aboutdisneyparks.com/about/leadership-team
p32
asS'fedex'
p33
(lp34
sS'mercer'
p35
(lp36
sS'staples'
p37
(lp38
Vhttp://venturebeat.com/2014/01/30/staples-announces-changes-to-leadership-team/
p39
asS'bank of america merrill lynch'
p40
(lp41
sS'nordstrom'
p42
(lp43
sS'adp'
p44
(lp45
Vhttp://www.broadridge.com/company-information/about/executive-leaders
p46
asS'progressive insurance'
p47
(lp48
sS'sanofi-aventis'
p49
(lp50
sS'honeywell aerospace'
p51
(lp52
sS'aon hewitt'
p53
(lp54
Vhttp://www.aon.com/hongkong/about-aon/company-overview/management-team.jsp
p55
aVhttp://ars-us.aon.com/en/Chicago/About-Us/Team/
p56
asS'honeywell'
p57
(lp58
Vhttp://honeywell.com/About/HoneywellLeadership/Pages/honeywell-leadership.aspx
p59
aVhttp://www.honeywellnow.com/2010/03/22/honeywell-names-dr-krishna-mikkilineni-and-bask-iyer-to-executive-management-team/
p60
asS'citigroup'
p61
(lp62
Vhttp://www.citigroup.com/citi/about/our_leaders.html
p63
aVhttp://www.banktech.com/management-strategies/citigroup-ceo-names-new-executive-team/d/d-id/1296058
p64
asS'netapp'
p65
(lp66
sS'northrop grumman'
p67
(lp68
sS'quest diagnostics'
p69
(lp70
sS'government'
p71
(lp72
Vhttp://www.sms.com/about-us/leadership-management-team
p73
aVhttp://winvale.com/about/executive-team/
p74
aVhttp://www.localgov.gov.tt/en/About%20the%20Ministry/Executive%20Team.aspx
p75
asS'dell'
p76
(lp77
sS'siemens'
p78
(lp79
Vhttp://finance.siemens.com/financialservices/cn/en/about_us/executive_team/pages/executive_team.aspx
p80
asS'amazon'
p81
(lp82
Vhttp://allthingsd.com/20130206/amazons-executive-team-is-shrinking/
p83
aVhttp://www.thepassivevoice.com/02/2013/amazons-executive-team-is-shrinking/
p84
asS'starbucks'
p85
(lp86
Vhttp://www.bevnet.com/news/2014/starbucks-shuffles-executive-team-ceo-schultz-to-focus-on-digital-mobile/
p87
asS'bbva compass'
p88
(lp89
sS"macy's"
p90
(lp91
sS'target'
p92
(lp93
Vhttp://www.glassdoor.com/Salary/Target-Executive-Team-Leader-Salaries-E194_D_KO7,28.htm
p94
aVhttp://www.careerbliss.com/target/reviews/executive-team-leader/
p95
aVhttp://www.glassdoor.com/Interview/Target-Executive-Team-Leader-Interview-Questions-EI_IE194.0,6_KO7,28.htm
p96
aVhttp://www.careerbliss.com/target/salaries/executive-team-leader/
p97
aVhttp://www.salarylist.com/company/Target/Executive-Team-Leader-Salary.htm
p98
asS'southwest airlines'
p99
(lp100
sS'mary kay cosmetics'
p101
(lp102
Vhttp://www.marykay.com/en-US/about-mary-kay/companyfounder/pages/executive-bios.aspx
p103
aVhttp://www.marykay.com/en-US/about-mary-kay/pages/executive-bios.aspx
p104
asS'motorola'
p105
(lp106
Vhttp://www.motorola.com/us/Motorola-Executive-Team/Motorola-Executive-Team.html
p107
aVhttp://www.motorola.com/us/About-Motorola/Corporate-About-Motorola.html
p108
asS'intel'
p109
(lp110
Vhttp://www.crn.com/news/components-peripherals/232500230/intel-restructures-executive-team-names-new-coo.htm
p111
asS'emc'
p112
(lp113
Vhttp://www.emc.com/corporate/emc-at-glance/exec-team/business-executives.htm
p114
aVhttp://israel.emc.com/corporate/coe/about/leadership.htm
p115
asS'the boeing company'
p116
(lp117
sS'mary kay inc.'
p118
(lp119
Vhttp://www.marykay.com/en-US/about-mary-kay/companyfounder/pages/executive-bios.aspx
p120
aVhttp://www.marykay.com/en-US/about-mary-kay/pages/executive-bios.aspx
p121
asS'cleveland clinic'
p122
(lp123
Vhttp://my.clevelandclinic.org/about-cleveland-clinic/overview/leadership/executive
p124
asS'tata consultancy services'
p125
(lp126
sS'safeway'
p127
(lp128
sS'us airways'
p129
(lp130
Vhttp://aviationblog.dallasnews.com/2013/06/parkers-aa-executive-team-will-have-five-from-us-airways-three-from-american-airlines.html/
p131
asS'hp enterprise services'
p132
(lp133
Vhttp://www8.hp.com/us/en/hp-information/executive-team/team.html
p134
aVhttp://ssl.www8.hp.com/us/en/company-information/executive-team/ceo-index.html
p135
aVhttp://www.crn.com/news/channel-programs/240160277/hps-whitman-shakes-up-executive-team-to-drive-sales-growth.htm
p136
asS'ups'
p137
(lp138
Vhttp://www.ups.com/content/us/en/about/executive/index.html?WT.svl=SubNav
p139
aVhttp://pressroom.ups.com/About+UPS/UPS+Leadership/Leaders
p140
asS'google'
p141
(lp142
Vhttp://qz.com/63143/google-builds-an-x-team-of-tech-executives-but-for-what/
p143
aVhttp://www.gv.com/team/
p144
asS'cisco'
p145
(lp146
Vhttp://www.cisco.com/web/CA/about/executive/index.html
p147
aVhttp://www.cisco.com/web/IN/about/executive_profiles.html
p148
aVhttp://www.eweek.com/c/a/Enterprise-Networking/Cisco-Streamlines-Executive-Management-Team-882992
p149
asS'wachovia, a wells fargo company'
p150
(lp151
Vhttps://www.wellsfargo.com/about/corporate/executive_officers/
p152
aVhttps://www.wellsfargo.com/about/corporate/executive_officers/carroll
p153
asS'coca-cola refreshments'
p154
(lp155
sS'state of california'
p156
(lp157
Vhttp://rnr-construction.com/about/
p158
aVhttp://www.armfielddesign.com/about/
p159
asS"lowe's home improvement"
p160
(lp161
Vhttp://www.4-traders.com/LOWES-COMPANIES-INC-13416/news/Lowes-Companies-Inc--Lowes-Aligns-Leadership-Team-to-Create-and-Deliver-Seamless-Home-Improveme-14317721/
p162
asS'schlumberger'
p163
(lp164
sS'hcl technologies'
p165
(lp166
Vhttp://www.hclinfosystems.com/about-us/executive-team
p167
aVhttp://www.hcltech.com/about-us/leadership/executive-profiles
p168
asS'rockwell automation'
p169
(lp170
Vhttp://www.rockwellautomation.com/about-us/executives/overview.page
p171
asS'glaxosmithkline'
p172
(lp173
Vhttp://www.gsk.com/en-gb/about-us/corporate-executive-team/
p174
aVhttp://us.gsk.com/en-us/about-us/corporate-executive-team/
p175
aVhttp://www.gsk.com/en-gb/about-us/corporate-executive-team/sir-andrew-witty/
p176
aVhttp://us.gsk.com/en-us/about-us/corporate-executive-team/emma-walmsley/
p177
asS'raytheon'
p178
(lp179
Vhttp://www.xerox.com/about-xerox/executive-leadership/corporate-officers/enus.html
p180
asS'jpmorgan chase'
p181
(lp182
Vhttp://www.jpmorganchase.com/corporate/About-JPMC/corporate-leadership.htm
p183
asS'carolinas healthcare system'
p184
(lp185
sS'home'
p186
(lp187
Vhttps://www.ecolonial.com/home/executive-team/
p188
aVhttps://www.peppergroup.com.au/about-us/Management/executive-team.html
p189
aVhttp://www.bionucleonics.com/executive-team/
p190
asS'boston scientific'
p191
(lp192
Vhttp://www.bostonscientific.com/en-US/about-us/executive-committee.html
p193
aVhttp://www.bostonheartdiagnostics.com/about_team_executive.php
p194
asS'general motors'
p195
(lp196
Vhttp://www.4-traders.com/GENERAL-MOTORS-COMPANY-6873535/news/General-Motors-Company--GM-Sets-Pay-for-Executive-Team-Update-17822278/
p197
asS'siemens healthcare'
p198
(lp199
Vhttp://medical.toshiba.com/about/executive-team/
p200
aVhttp://www.siemensgovt.com/ab_executive_team.html
p201
asS'humana'
p202
(lp203
sS'us air force'
p204
(lp205
sS'nationwide insurance'
p206
(lp207
Vhttp://www.nationwide.com/about-us/executive-biographies.jsp
p208
asS'starbucks coffee company'
p209
(lp210
sS'hewlett-packard'
p211
(lp212
Vhttp://www8.hp.com/us/en/hp-information/executive-team/team.html
p213
aVhttps://ssl.www8.hp.com/us/en/company-information/executive-team/ceo-index.html
p214
aVhttp://www.crn.com/news/channel-programs/240160277/hps-whitman-shakes-up-executive-team-to-drive-sales-growth.htm
p215
asS'charles schwab'
p216
(lp217
sS'jacobs engineering'
p218
(lp219
sS'hca'
p220
(lp221
Vhttp://www.hcahospitals.co.uk/about-hca/management-team/
p222
aVhttp://careersathca.com/executives/
p223
asS'aramark'
p224
(lp225
Vhttp://www.aramark.ie/our-people/executive-team/
p226
asS'medtronic'
p227
(lp228
Vhttp://www.medtronic.com/about-us/company-profile/leadership/index.htm
p229
aVhttp://www.baxter.com/about_baxter/corporate_governance/company_leadership/index.html
p230
asS'cgi'
p231
(lp232
sS'kelly services'
p233
(lp234
Vhttp://www.kellyservices.com.au/AU/About-Us/Kelly-Executive/
p235
aVhttp://www.kellyservices.com/Global/About-Us/Kelly-Leadership/
p236
aVhttp://www.kellyservices.us/US/About-Us/Company-Information/Our-Leadership/
p237
asS'wells fargo bank'
p238
(lp239
Vhttps://www.wellsfargo.com/about/corporate/executive_officers/
p240
asS'usaa'
p241
(lp242
Vhttps://www.usaa.com/inet/pages/about_usaa_corporate_governance_executive_council
p243
asS'usaf'
p244
(lp245
sS'basf'
p246
(lp247
Vhttp://www.basf-new-business.com/en/about-us/management-team/
p248
asS'dow chemical'
p249
(lp250
Vhttp://www.dow.com/microbial/about/ab_leadership_team.htm
p251
asS'wellpoint'
p252
(lp253
Vhttp://media.corporate-ir.net/media_files/irol/13/130104/wellpoint2011/executive-leadership-team.html
p254
aVhttp://wellpointhealth.ca/about/team/
p255
asS'amazon.com'
p256
(lp257
Vhttp://allthingsd.com/20130206/amazons-executive-team-is-shrinking/
p258
asS'avon'
p259
(lp260
sS'centurylink'
p261
(lp262
sS'caterpillar inc.'
p263
(lp264
sS'international paper'
p265
(lp266
sS'liberty mutual insurance'
p267
(lp268
sS'pepsico'
p269
(lp270
Vhttp://www.pepsicenter.com/kse/company/executive-team/
p271
asS'pfizer'
p272
(lp273
Vhttp://www.pfizer.com/about/leadership_and_structure/meet_executive_leaders
p274
aVhttp://www.pfizer.com/about/leadership_and_structure/leadership_structure
p275
aVhttp://www.loweenterprises.com/about/Executive_Team.aspx
p276
aVhttp://www.freshnews.com/news/46052/san-diego-phenomix-expands-executive-leadership-team-chris-burnley-named-chief-business-o
p277
asS'usps'
p278
(lp279
Vhttp://postandparcel.info/53937/news/human-resources/vogel-and-vegliante-to-retire-from-usps-executive-team/
p280
asS'worleyparsons'
p281
(lp282
sS'unitedhealthcare'
p283
(lp284
Vhttp://www.unitedhealthgroup.com/About/Executives.aspx
p285
aVhttp://firsthealth.coventryhealthcare.com/about-first-health/executive-profiles/index.htm
p286
asS'cognizant technology solutions'
p287
(lp288
sS'the home depot'
p289
(lp290
Vhttp://www.retailingtoday.com/article/home-depot-makes-changes-executive-team-0
p291
asS'paychex'
p292
(lp293
Vhttp://www.paydaypr.com/about-2/executive-team/
p294
asS'bny mellon'
p295
(lp296
Vhttp://us.bnymellonam.com/core/investment_managers_and_distribution/bny_mellon_pension_services/our_team/our_team.html
p297
aVhttp://www.cibcmellon.com/Contents/en_CA/English/AboutUs/Executive-Team.html
p298
asS'united airlines'
p299
(lp300
sS'jp morgan chase'
p301
(lp302
Vhttp://www.jpmorganchase.com/corporate/About-JPMC/corporate-leadership.htm
p303
asS'apple'
p304
(lp305
sS'principal financial group'
p306
(lp307
sS'comcast cable'
p308
(lp309
sS'travelers'
p310
(lp311
Vhttp://www.travelers.ie/about-us/leadership-team.aspx
p312
aVhttp://travelerscup.com/about/executive-team/
p313
asS'verizon business'
p314
(lp315
Vhttp://www.verizon.com/about/our-company/executive-bios/
p316
aVhttp://www.verizonwireless.com/aboutus/leadership/executive.html
p317
aVhttp://news.verizonenterprise.com/executive-team/
p318
asS'ucla'
p319
(lp320
sS"kohl's department stores"
p321
(lp322
Vhttp://www.thefreelibrary.com/Kohl's+Announces+New+Leadership+for+Planning+and+Allocation+Team%3b...-a0118843086
p323
asS'cb richard ellis'
p324
(lp325
Vhttp://www.cbre.us/aboutus/Pages/Executive-Team.aspx
p326
aVhttp://www.costar.com/News/Article/CB-Richard-Ellis-Adds-to-Executive-Team/112689
p327
asS'credit suisse'
p328
(lp329
Vhttps://www.credit-suisse.com/ch/en/investment-banking/about-investment-banking/management-team.html
p330
asS'lockheed martin aeronautics'
p331
(lp332
sS'chevron'
p333
(lp334
Vhttp://www.chevron.com/about/leadership/corporateofficers/
p335
aVhttp://subseaworldnews.com/2013/10/07/chevron-makes-changes-to-its-executive-team/
p336
asS'cbre'
p337
(lp338
Vhttp://www.cbre.us/aboutus/Pages/Executive-Team.aspx
p339
aVhttp://www.cbre.us/services/capitalmarkets/auction/Pages/leadership-team.aspx
p340
aVhttp://www.cbre.ro/ro_en/about_cbre/executive_team
p341
asS'fiserv'
p342
(lp343
sS'u.s. department of state'
p344
(lp345
sS'boeing commercial airplanes'
p346
(lp347
sS'law'
p348
(lp349
Vhttp://bulldoglawgroup.com/executive-team/
p350
aVhttp://www.bna.com/executive-team-a6892/
p351
aVhttp://www.legalshield.com/about-us/executive-team/
p352
aVhttps://www.rocketlawyer.com/executive-team.rl
p353
asS'the hartford'
p354
(lp355
sS'fedex services'
p356
(lp357
Vhttp://about.van.fedex.com/newsroom/global-english/fortune-magazine-selects-fedex-exec-for-executive-dream-team/
p358
asS'amgen'
p359
(lp360
Vhttp://www.amgen.com/about/leadership_team.html
p361
aVhttp://www.amgen.com/about/leadership_team_sean_harper.html
p362
asS'pricewaterhousecoopers'
p363
(lp364
sS'citi'
p365
(lp366
Vhttp://www.citigroup.com/citi/about/our_leaders.html
p367
asS'rr donnelley'
p368
(lp369
sS'citibank'
p370
(lp371
Vhttp://www.citigroup.com/citi/about/our_leaders.html
p372
asS'earthlink'
p373
(lp374
Vhttp://www.earthlink.net/about/leaders/
p375
aVhttp://www.prnewswire.com/news-releases/sk-earthlink-names-executive-team-and-announces-headquarters-54772112.html
p376
asS'teksystems'
p377
(lp378
sS'aflac'
p379
(lp380
Vhttp://www.thestreet.com/story/11649473/1/aflac-adds-two-senior-executives-to-sales-force-leadership-team.html
p381
asS'whole foods market'
p382
(lp383
sS'aerotek'
p384
(lp385
Vhttp://www.aerotek.com/about-aerotek/leadership.aspx
p386
aVhttp://www.marketsource.com/team/
p387
asS'barclays capital'
p388
(lp389
Vhttp://www.barclays.com/about-barclays/leadership-team.html
p390
asS'symantec'
p391
(lp392
Vhttp://www.symantec.com/about/profile/management/executives/
p393
aVhttp://www.symantec.com/connect/blogs/new-executive-team-members-join-symantec#!
p394
aVhttp://www.crn.com/news/security/213001171/symantec-restructures-executive-team.htm
p395
asS'verizon'
p396
(lp397
Vhttp://www.verizon.com/about/our-company/executive-bios/
p398
aVhttp://www.verizonwireless.com/aboutus/leadership/executive.html
p399
asS'jones lang lasalle'
p400
(lp401
Vhttp://www.catchajob.com.au/job/jones-lang-lasalle-executive-team-assistant-full-time-in-sydney-nsw/
p402
asS'hp'
p403
(lp404
Vhttp://www8.hp.com/us/en/hp-information/executive-team/team.html
p405
aVhttp://ssl.www8.hp.com/us/en/company-information/executive-team/ceo-index.html
p406
aVhttp://www.crn.com/news/channel-programs/240160277/hps-whitman-shakes-up-executive-team-to-drive-sales-growth.htm
p407
asS'blackrock'
p408
(lp409
sS'xerox'
p410
(lp411
Vhttp://www.xerox.com/about-xerox/executive-leadership/corporate-officers/enus.html
p412
aVhttp://www.xerox.com/about-xerox/executive-leadership/enus.html
p413
asS'u.s. bank'
p414
(lp415
Vhttps://www.usbank.com/commercial-business/tax-credit-financing/senior-leadership-team.html
p416
asS'pwc'
p417
(lp418
Vhttp://www.pwc.com/gx/en/leadership/leadership-team.jhtml
p419
aVhttp://www.pwc.com/us/en/about-us/leadership/index.jhtml
p420
asS'capital one'
p421
(lp422
Vhttp://www.capitalone.com/about/corporate-information/leadership/
p423
asS'boeing'
p424
(lp425
sS'pnc'
p426
(lp427
sS'state farm agent'
p428
(lp429
Vhttps://www.statefarm.com/about-us/company-overview/company-profile/leadership-team
p430
aVhttps://www.statefarm.com/about-us/company-overview/company-profile/leadership-team/our-board-of-directors
p431
aVhttps://www.statefarm.ca/about-us/company-overview/company-profile/leadership-team
p432
asS'national oilwell varco'
p433
(lp434
sS'ibm'
p435
(lp436
Vhttp://www.prolifics.com/company/leadership-team/executive-team
p437
asS'us postal service'
p438
(lp439
sS'j.p. morgan'
p440
(lp441
Vhttp://www.jpmorganchase.com/corporate/About-JPMC/corporate-leadership.htm
p442
asS'ernst & young'
p443
(lp444
Vhttp://www.me-ality.com/about-us/executive-team
p445
asS'state street'
p446
(lp447
sS'u.s. army'
p448
(lp449
sS'qualcomm'
p450
(lp451
Vhttp://www.androidheadlines.com/2014/08/intel-welcomes-senior-qualcomm-executive-team.html
p452
asS'merck'
p453
(lp454
Vhttp://www.merck.com/about/leadership/home.html
p455
aVhttp://www.merck.com/about/leadership/executive-committee/home.html
p456
aVhttp://www.merckgroup.com/en/company/management/executive_board/executive_board.html
p457
aVhttp://www.emdgroup.com/emd/company/management/executive_board/executive_board.html
p458
asS'ey'
p459
(lp460
Vhttp://www.ey.com/GL/en/About-us/Our-global-approach/Our-leaders/About-EY---Global-Executive
p461
asS'northwestern mutual'
p462
(lp463
Vhttp://www.manpower.us/en/About-Us/Leadership.htm
p464
asS'cisco systems'
p465
(lp466
Vhttp://www.cisco.com/web/CA/about/executive/index.html
p467
aVhttp://www.cisco.com/web/IN/about/executive_profiles.html
p468
asS'kroger'
p469
(lp470
sS'texas instruments'
p471
(lp472
sS'wal-mart'
p473
(lp474
Vhttp://corporate.walmart.com/our-story/leadership/executive-management/
p475
aVhttp://wwd.com/beauty-industry-news/wal-mart-u-s-bolsters-executive-team-500573/
p476
asS'cox communications'
p477
(lp478
Vhttp://www.coxmediagroup.com/news/cmg-press-releases/cox-enterprises-announces-executive-leadership-tra/nXTpF/
p479
asS'booz allen hamilton'
p480
(lp481
Vhttp://m.boozallen.com/about/leadership/executive-leadership/John-Mayer
p482
asS'best buy'
p483
(lp484
Vhttp://consumerist.com/2010/06/02/reach-best-buy-executive-resolution-team/
p485
asS'kimberly-clark'
p486
(lp487
Vhttp://www.kimberly-clark.com/ourcompany/overview/leadership/sr_leadership.aspx
p488
aVhttp://www.kimberly-clark.com/ourcompany/overview/leadership/sr_leadership/nloewe.aspx
p489
asS'infosys'
p490
(lp491
sS'northern trust'
p492
(lp493
sS'sap'
p494
(lp495
Vhttp://www.sap.com/corporate-en/about/our-company/our-boards/executive-board.html
p496
aVhttp://go.sap.com/about/management-team.html
p497
aVhttp://www.dataxstream.com/about/executive-team/
p498
asS'ericsson'
p499
(lp500
sS'chase'
p501
(lp502
Vhttp://www.jpmorganchase.com/corporate/About-JPMC/corporate-leadership.htm
p503
asS'novartis'
p504
(lp505
Vhttp://www.novartis.com/about-novartis/people/executive-committee.shtml
p506
aVhttp://www.novartisoncology.com/about-us/leadership-team.jsp
p507
aVhttp://www.fiercebiotech.com/story/novartis-shakes-executive-team/2008-10-20
p508
asS'fifth third bank'
p509
(lp510
Vhttps://www.53.com/about/corporate-governance/cg-executive-officers.html
p511
asS'nike'
p512
(lp513
Vhttp://www.pdfsebook.com/nike-executive-team/
p514
asS'bae systems'
p515
(lp516
Vhttp://washingtontechnology.com/blogs/editors-notebook/2014/02/bae-executive-team.aspx
p517
asS'morgan stanley smith barney'
p518
(lp519
Vhttp://www.financial-planning.com/news/morgan-stanley-smith-barney-executive-team-announced-2661528-1.html
p520
aVhttp://www.bankinvestmentconsultant.com/news/morgan-stanley-smith-barney-executive-team-announced-2661528-1.html
p521
aVhttp://www.onwallstreet.com/news/morgan-stanley-smith-barney-executive-team-announced-2661528-1.html
p522
asS'university of illinois at urbana-champaign'
p523
(lp524
Vhttp://www.zebra.com/us/en/about-zebra/company-information/company-leadership.html
p525
asS'united states marine corps'
p526
(lp527
sS'ibm global services'
p528
(lp529
sS'penn state university'
p530
(lp531
sS'company'
p532
S'url'
p533
sS'sodexo'
p534
(lp535
Vhttp://ca.sodexo.com/caen/about-sodexo/executive-team/corporate-governance.aspx
p536
aVhttp://ru.sodexo.com/ruen/about-us/management-team/management-team.asp
p537
asS'fedex express'
p538
(lp539
Vhttp://about.van.fedex.com/newsroom/global-english/fortune-magazine-selects-fedex-exec-for-executive-dream-team/
p540
asS'sprint nextel'
p541
(lp542
Vhttp://newsroom.sprint.com/executive-team/marcelo-claure.htm
p543
asS'fannie mae'
p544
(lp545
Vhttp://www.fanniemae.com/portal/about-us/company-overview/fm-leadership.html
p546
aVhttp://www.telegraph.co.uk/finance/newsbysector/banksandfinance/2795397/Fannie-Mae-executive-team-axed-to-restore-confidence.html
p547
asS'chrysler'
p548
(lp549
Vhttp://chryslercars.info/2013/06/chrysler-executive-team/
p550
asS'ubs'
p551
(lp552
Vhttp://ubs.jobs/executive-team-assistant/jobs-in/
p553
asS'delta air lines'
p554
(lp555
Vhttp://www.deltabuildingservices.com/about/executive-team
p556
asS'genentech'
p557
(lp558
Vhttp://www.gene.com/about-us/leadership/executive-committee
p559
asS'fluor'
p560
(lp561
Vhttp://www.fluor.com/about_fluor/leadership/Pages/default.aspx
p562
asS'walmart'
p563
(lp564
Vhttp://corporate.walmart.com/our-story/leadership/executive-management/
p565
asS'general electric'
p566
(lp567
Vhttp://www.ge.com/about-us/leadership/corporate-executives
p568
aVhttp://www.ge.com/about-us/leadership/past-leaders
p569
aVhttp://www.gecapital.com.au/our-leadership-team/
p570
asS'prudential financial'
p571
(lp572
sS'jcpenney'
p573
(lp574
Vhttp://www.careerbliss.com/jc-penney/salaries/executive-team-leader/
p575
aVhttp://www.prnewswire.com/news-releases/jcpenney-announces-expansion-of-its-leadership-team-149084715.html
p576
asS'metlife'
p577
(lp578
Vhttps://www.metlife.com/about/corporate-profile/corporate-governance/executive-officers/index.html
p579
asS'ameriprise financial services, inc.'
p580
(lp581
sS'va medical center'
p582
(lp583
Vhttp://www.washingtondc.va.gov/about/Leadership.asp
p584
aVhttp://www.hampton.va.gov/about/leadership.asp
p585
aVhttp://www.coatesville.va.gov/COATESVILLE/features/Executive_Leaders_Join_Coatesville_VA_Medical_Center_Team.asp
p586
aVhttp://www.atlanta.va.gov/about/leadership.asp
p587
aVhttp://www.indianapolis.va.gov/about/leadership.asp
p588
asS'johnson controls'
p589
(lp590
Vhttp://www.johnsoncontrols.com/content/us/en/about/our_leaders.html
p591
aVhttp://www.johnsoncontrols.com/content/us/en/about/our_leaders/Officers.html
p592
asS'aecom'
p593
(lp594
Vhttp://www.aecom.com/About/
p595
asS'lockheed martin'
p596
(lp597
Vhttp://www.lockheedmartin.com/us/who-we-are/leadership/full-spectrum-leadership.html
p598
aVhttp://leadershippop.com/131426/lockheed-martin-executive-leadership-team/
p599
asS'enterprise rent-a-car'
p600
(lp601
Vhttp://www.enterpriseholdings.com/about-us/leadership/
p602
asS'costco wholesale'
p603
(lp604
Vhttp://addictedtocostco.com/2010/02/17/costco-executive-team-changes/
p605
asS'ge capital'
p606
(lp607
Vhttp://www.gecapital.com.au/our-leadership-team/
p608
aVhttp://www.ge.com/about-us/leadership/corporate-executives
p609
aVhttp://www.ge.com/about-us/leadership/business-executives
p610
asS'travelers insurance'
p611
(lp612
Vhttp://www.travelers.ie/about-us/leadership-team.aspx
p613
asS'john deere'
p614
(lp615
Vhttps://www.deere.com/en_US/corporate/our_company/about_us/leadership/executives/landing.page
p616
aVhttp://www.brazosvalleyeq.com/company-profile/locationsstaff/executive-team/
p617
aVhttp://deerequipment.com/storepages/leadership_team.html
p618
asS'aetna'
p619
(lp620
Vhttps://www.aetna.com/about-us/aetna-leadership.html
p621
aVhttp://www.aetna-foundation.org/foundation/about-aetna-foundation/leadership-team/index.html
p622
aVhttp://consumerist.com/2009/06/06/reach-aetnas-executive-resolution-team/
p623
asS'capgemini'
p624
(lp625
sS'oracle'
p626
(lp627
Vhttp://www.mythics.com/about/leadership-team
p628
asS'microsoft'
p629
(lp630
Vhttp://www.microsoft.com/en-sg/aboutus/executive-team.aspx
p631
as.